; Function Attrs: nounwind uwtable
define dso_local void @flushAllDataAndResetRDB(i32 noundef %0) local_unnamed_addr #0 {
  %2 = alloca %struct.rdbSaveInfo, align 8
  %3 = tail call i64 @emptyData(i32 noundef -1, i32 noundef %0, ptr noundef null)
  %4 = load i64, ptr getelementptr inbounds nuw (i8, ptr @server, i64 6720), align 8, !tbaa !109
  %5 = add nsw i64 %4, %3
  store i64 %5, ptr getelementptr inbounds nuw (i8, ptr @server, i64 6720), align 8, !tbaa !109
  %6 = load i32, ptr getelementptr inbounds nuw (i8, ptr @server, i64 308), align 4, !tbaa !110
  %7 = icmp eq i32 %6, 1
  br i1 %7, label %8, label %9

8:                                                ; preds = %1
  tail call void @killRDBChild() #20
  br label %9

9:                                                ; preds = %8, %1
  %10 = load i32, ptr getelementptr inbounds nuw (i8, ptr @server, i64 6768), align 8, !tbaa !111
  %11 = icmp sgt i32 %10, 0
  br i1 %11, label %12, label %16

12:                                               ; preds = %9
  call void @llvm.lifetime.start.p0(i64 64, ptr nonnull %2) #20
  %13 = call ptr @rdbPopulateSaveInfo(ptr noundef nonnull %2) #20
  %14 = load ptr, ptr getelementptr inbounds nuw (i8, ptr @server, i64 6776), align 8, !tbaa !112
  %15 = call i32 @rdbSave(i32 noundef 0, ptr noundef %14, ptr noundef %13, i32 noundef 0) #20
  call void @llvm.lifetime.end.p0(i64 64, ptr nonnull %2) #20
  br label %16

16:                                               ; preds = %12, %9
  %17 = and i32 %0, 1
  %.not = icmp eq i32 %17, 0
  br i1 %.not, label %18, label %21

18:                                               ; preds = %16
  %19 = call i32 @je_mallctl(ptr noundef nonnull @.str.7, ptr noundef null, ptr noundef null, ptr noundef null, i64 noundef 0) #20
  %20 = call i32 @jemalloc_purge() #20
  br label %21

21:                                               ; preds = %18, %16
  ret void
}